target datalayout = "e-m:e-p270:32:32-p271:32:32-p272:64:64-i64:64-i128:128-f80:128-n8:16:32:64-S128"
target triple = "x86_64-pc-linux-gnu"

%struct.GlobalOptionsContext = type { ptr, ptr, i32 }

; Function Attrs: nounwind uwtable
define internal i32 @opt_filter_complex(ptr noundef %0, ptr noundef %1, ptr noundef %2) #0 {
  %4 = alloca i32, align 4
  %5 = alloca ptr, align 8
  %6 = alloca ptr, align 8
  %7 = alloca ptr, align 8
  %8 = alloca ptr, align 8
  %9 = alloca ptr, align 8
  %10 = alloca i32, align 4
  %11 = alloca i32, align 4
  store ptr %0, ptr %5, align 8, !tbaa !26
  store ptr %1, ptr %6, align 8, !tbaa !23
  store ptr %2, ptr %7, align 8, !tbaa !23
  call void @llvm.lifetime.start.p0(i64 8, ptr %8) #12
  %12 = load ptr, ptr %5, align 8, !tbaa !26
  store ptr %12, ptr %8, align 8, !tbaa !186
  call void @llvm.lifetime.start.p0(i64 8, ptr %9) #12
  call void @llvm.lifetime.start.p0(i64 4, ptr %10) #12
  %13 = load ptr, ptr %7, align 8, !tbaa !23
  %14 = call noalias ptr @av_strdup(ptr noundef %13)
  store ptr %14, ptr %9, align 8, !tbaa !23
  %15 = load ptr, ptr %9, align 8, !tbaa !23
  %16 = icmp ne ptr %15, null
  br i1 %16, label %18, label %17

17:                                               ; preds = %3
  store i32 -12, ptr %4, align 4
  store i32 1, ptr %11, align 4
  br label %43

18:                                               ; preds = %3
  %19 = load ptr, ptr %8, align 8, !tbaa !186
  %20 = getelementptr inbounds nuw %struct.GlobalOptionsContext, ptr %19, i32 0, i32 1
  %21 = load ptr, ptr %8, align 8, !tbaa !186
  %22 = getelementptr inbounds nuw %struct.GlobalOptionsContext, ptr %21, i32 0, i32 2
  %23 = load ptr, ptr %8, align 8, !tbaa !186
  %24 = getelementptr inbounds nuw %struct.GlobalOptionsContext, ptr %23, i32 0, i32 2
  %25 = load i32, ptr %24, align 8, !tbaa !110
  %26 = add nsw i32 %25, 1
  %27 = call i32 @grow_array(ptr noundef %20, i32 noundef 8, ptr noundef %22, i32 noundef %26)
  store i32 %27, ptr %10, align 4, !tbaa !16
  %28 = load i32, ptr %10, align 4, !tbaa !16
  %29 = icmp slt i32 %28, 0
  br i1 %29, label %30, label %32

30:                                               ; preds = %18
  call void @av_freep(ptr noundef %9)
  %31 = load i32, ptr %10, align 4, !tbaa !16
  store i32 %31, ptr %4, align 4
  store i32 1, ptr %11, align 4
  br label %43

32:                                               ; preds = %18
  %33 = load ptr, ptr %9, align 8, !tbaa !23
  %34 = load ptr, ptr %8, align 8, !tbaa !186
  %35 = getelementptr inbounds nuw %struct.GlobalOptionsContext, ptr %34, i32 0, i32 1
  %36 = load ptr, ptr %35, align 8, !tbaa !109
  %37 = load ptr, ptr %8, align 8, !tbaa !186
  %38 = getelementptr inbounds nuw %struct.GlobalOptionsContext, ptr %37, i32 0, i32 2
  %39 = load i32, ptr %38, align 8, !tbaa !110
  %40 = sub nsw i32 %39, 1
  %41 = sext i32 %40 to i64
  %42 = getelementptr inbounds ptr, ptr %36, i64 %41
  store ptr %33, ptr %42, align 8, !tbaa !23
  store i32 0, ptr %4, align 4
  store i32 1, ptr %11, align 4
  br label %43

43:                                               ; preds = %32, %30, %17
  call void @llvm.lifetime.end.p0(i64 4, ptr %10) #12
  call void @llvm.lifetime.end.p0(i64 8, ptr %9) #12
  call void @llvm.lifetime.end.p0(i64 8, ptr %8) #12
  %44 = load i32, ptr %4, align 4
  ret i32 %44
}